; Function Attrs: mustprogress nofree nounwind willreturn memory(write, argmem: none, inaccessiblemem: readwrite) uwtable
define noalias noundef ptr @Mio_SopConst1() local_unnamed_addr #1 {
Vec_IntPush.exit:
  %0 = tail call noalias dereferenceable_or_null(16) ptr @malloc(i64 noundef 16) #6
  %1 = getelementptr inbounds nuw i8, ptr %0, i64 4
  store i32 16, ptr %0, align 8, !tbaa !14
  %2 = tail call noalias dereferenceable_or_null(64) ptr @malloc(i64 noundef 64) #6
  %3 = getelementptr inbounds nuw i8, ptr %0, i64 8
  store ptr %2, ptr %3, align 8, !tbaa !10
  store i32 1, ptr %1, align 4, !tbaa !3
  store i32 0, ptr %2, align 4, !tbaa !11
  ret ptr %0
}